target datalayout = "e-m:e-p270:32:32-p271:32:32-p272:64:64-i64:64-i128:128-f80:128-n8:16:32:64-S128"
target triple = "x86_64-pc-linux-gnu"

%struct.ident_t = type { i32, i32, i32, i32, ptr }
%"struct.std::_Vector_base.56" = type { %"struct.std::_Vector_base<int, gmx::DefaultInitializationAllocator<int>>::_Vector_impl" }
%"struct.std::_Vector_base<int, gmx::DefaultInitializationAllocator<int>>::_Vector_impl" = type { %"struct.std::_Vector_base<int, gmx::DefaultInitializationAllocator<int>>::_Vector_impl_data" }
%"struct.std::_Vector_base<int, gmx::DefaultInitializationAllocator<int>>::_Vector_impl_data" = type { ptr, ptr, ptr }
%"class.gmx::ArrayRef.479" = type { %"struct.gmx::ArrayRefIter.480", %"struct.gmx::ArrayRefIter.480" }
%"struct.gmx::ArrayRefIter.480" = type { ptr }
%"class.gmx::ArrayRef.817" = type { %"struct.gmx::ArrayRefIter.818", %"struct.gmx::ArrayRefIter.818" }
%"struct.gmx::ArrayRefIter.818" = type { ptr }
%struct.gmx_cgsort_t = type { i32 }

@2 = private unnamed_addr constant %struct.ident_t { i32 0, i32 2, i32 0, i32 22, ptr @0 }, align 8

; Function Attrs: mustprogress nounwind uwtable
define linkonce_odr noundef ptr @_ZNKSt6vectorIiN3gmx30DefaultInitializationAllocatorIiSaIiEEEE11_M_data_ptrIiEEPT_S7_(ptr noundef nonnull align 8 dereferenceable(24) %0, ptr noundef %1) #0 comdat align 2 {
  %3 = alloca ptr, align 8
  %4 = alloca ptr, align 8
  store ptr %0, ptr %3, align 8, !tbaa !685
  store ptr %1, ptr %4, align 8, !tbaa !152
  %5 = load ptr, ptr %4, align 8, !tbaa !152
  ret ptr %5
}

; Function Attrs: mustprogress nounwind uwtable
define linkonce_odr noundef i64 @_ZNK3gmx12ArrayRefIterIiEmiES1_(ptr noundef nonnull align 8 dereferenceable(8) %0, ptr %1) #0 comdat align 2 {
  %3 = alloca %"struct.gmx::ArrayRefIter.480", align 8
  %4 = alloca ptr, align 8
  %5 = getelementptr inbounds nuw %"struct.gmx::ArrayRefIter.480", ptr %3, i32 0, i32 0
  store ptr %1, ptr %5, align 8
  store ptr %0, ptr %4, align 8, !tbaa !895
  %6 = load ptr, ptr %4, align 8
  %7 = getelementptr inbounds nuw %"struct.gmx::ArrayRefIter.480", ptr %6, i32 0, i32 0
  %8 = load ptr, ptr %7, align 8, !tbaa !897
  %9 = getelementptr inbounds nuw %"struct.gmx::ArrayRefIter.480", ptr %3, i32 0, i32 0
  %10 = load ptr, ptr %9, align 8, !tbaa !897
  %11 = ptrtoint ptr %8 to i64
  %12 = ptrtoint ptr %10 to i64
  %13 = sub i64 %11, %12
  %14 = sdiv exact i64 %13, 4
  ret i64 %14
}

; Function Attrs: mustprogress nounwind uwtable
define linkonce_odr noundef ptr @_ZNK3gmx12ArrayRefIterIiE4dataEv(ptr noundef nonnull align 8 dereferenceable(8) %0) #0 comdat align 2 {
  %2 = alloca ptr, align 8
  store ptr %0, ptr %2, align 8, !tbaa !895
  %3 = load ptr, ptr %2, align 8
  %4 = getelementptr inbounds nuw %"struct.gmx::ArrayRefIter.480", ptr %3, i32 0, i32 0
  %5 = load ptr, ptr %4, align 8, !tbaa !897
  ret ptr %5
}

; Function Attrs: mustprogress nounwind uwtable
define linkonce_odr noundef ptr @_ZNK3gmx12ArrayRefIterIK12gmx_cgsort_tE4dataEv(ptr noundef nonnull align 8 dereferenceable(8) %0) #0 comdat align 2 {
  %2 = alloca ptr, align 8
  store ptr %0, ptr %2, align 8, !tbaa !1118
  %3 = load ptr, ptr %2, align 8
  %4 = getelementptr inbounds nuw %"struct.gmx::ArrayRefIter.818", ptr %3, i32 0, i32 0
  %5 = load ptr, ptr %4, align 8, !tbaa !1120
  ret ptr %5
}

; Function Attrs: mustprogress nounwind uwtable
define linkonce_odr noundef ptr @_ZNSt6vectorIiN3gmx30DefaultInitializationAllocatorIiSaIiEEEE4dataEv(ptr noundef nonnull align 8 dereferenceable(24) %0) #0 comdat align 2 {
  %2 = alloca ptr, align 8
  store ptr %0, ptr %2, align 8, !tbaa !685
  %3 = load ptr, ptr %2, align 8
  %4 = getelementptr inbounds nuw %"struct.std::_Vector_base.56", ptr %3, i32 0, i32 0
  %5 = getelementptr inbounds nuw %"struct.std::_Vector_base<int, gmx::DefaultInitializationAllocator<int>>::_Vector_impl_data", ptr %4, i32 0, i32 0
  %6 = load ptr, ptr %5, align 8, !tbaa !707
  %7 = call noundef ptr @_ZNKSt6vectorIiN3gmx30DefaultInitializationAllocatorIiSaIiEEEE11_M_data_ptrIiEEPT_S7_(ptr noundef nonnull align 8 dereferenceable(24) %3, ptr noundef %6) #17
  ret ptr %7
}

; Function Attrs: mustprogress nounwind uwtable
define linkonce_odr noundef i64 @_ZNK3gmx8ArrayRefIiE4sizeEv(ptr noundef nonnull align 8 dereferenceable(16) %0) #0 comdat align 2 {
  %2 = alloca ptr, align 8
  %3 = alloca %"struct.gmx::ArrayRefIter.480", align 8
  store ptr %0, ptr %2, align 8, !tbaa !708
  %4 = load ptr, ptr %2, align 8
  %5 = getelementptr inbounds nuw %"class.gmx::ArrayRef.479", ptr %4, i32 0, i32 1
  %6 = getelementptr inbounds nuw %"class.gmx::ArrayRef.479", ptr %4, i32 0, i32 0
  call void @llvm.memcpy.p0.p0.i64(ptr align 8 %3, ptr align 8 %6, i64 8, i1 false)
  %7 = getelementptr inbounds nuw %"struct.gmx::ArrayRefIter.480", ptr %3, i32 0, i32 0
  %8 = load ptr, ptr %7, align 8
  %9 = call noundef i64 @_ZNK3gmx12ArrayRefIterIiEmiES1_(ptr noundef nonnull align 8 dereferenceable(8) %5, ptr %8) #17
  ret i64 %9
}

; Function Attrs: mustprogress nounwind uwtable
define linkonce_odr void @_ZN3gmx12ArrayRefIterIiEC2EPi(ptr noundef nonnull align 8 dereferenceable(8) %0, ptr noundef %1) unnamed_addr #0 comdat align 2 {
  %3 = alloca ptr, align 8
  %4 = alloca ptr, align 8
  store ptr %0, ptr %3, align 8, !tbaa !895
  store ptr %1, ptr %4, align 8, !tbaa !152
  %5 = load ptr, ptr %3, align 8
  %6 = getelementptr inbounds nuw %"struct.gmx::ArrayRefIter.480", ptr %5, i32 0, i32 0
  %7 = load ptr, ptr %4, align 8, !tbaa !152
  store ptr %7, ptr %6, align 8, !tbaa !897
  ret void
}

; Function Attrs: mustprogress nounwind uwtable
define linkonce_odr noundef ptr @_ZNK3gmx8ArrayRefIiE4dataEv(ptr noundef nonnull align 8 dereferenceable(16) %0) #0 comdat align 2 {
  %2 = alloca ptr, align 8
  store ptr %0, ptr %2, align 8, !tbaa !708
  %3 = load ptr, ptr %2, align 8
  %4 = getelementptr inbounds nuw %"class.gmx::ArrayRef.479", ptr %3, i32 0, i32 0
  %5 = call noundef ptr @_ZNK3gmx12ArrayRefIterIiE4dataEv(ptr noundef nonnull align 8 dereferenceable(8) %4) #17
  ret ptr %5
}

; Function Attrs: mustprogress nounwind uwtable
define linkonce_odr void @_ZN3gmx12ArrayRefIterIK12gmx_cgsort_tEC2EPS2_(ptr noundef nonnull align 8 dereferenceable(8) %0, ptr noundef %1) unnamed_addr #0 comdat align 2 {
  %3 = alloca ptr, align 8
  %4 = alloca ptr, align 8
  store ptr %0, ptr %3, align 8, !tbaa !1118
  store ptr %1, ptr %4, align 8, !tbaa !1083
  %5 = load ptr, ptr %3, align 8
  %6 = getelementptr inbounds nuw %"struct.gmx::ArrayRefIter.818", ptr %5, i32 0, i32 0
  %7 = load ptr, ptr %4, align 8, !tbaa !1083
  store ptr %7, ptr %6, align 8, !tbaa !1120
  ret void
}

; Function Attrs: mustprogress nounwind uwtable
define linkonce_odr noundef ptr @_ZNK3gmx8ArrayRefIK12gmx_cgsort_tE4dataEv(ptr noundef nonnull align 8 dereferenceable(16) %0) #0 comdat align 2 {
  %2 = alloca ptr, align 8
  store ptr %0, ptr %2, align 8, !tbaa !1071
  %3 = load ptr, ptr %2, align 8
  %4 = getelementptr inbounds nuw %"class.gmx::ArrayRef.817", ptr %3, i32 0, i32 0
  %5 = call noundef ptr @_ZNK3gmx12ArrayRefIterIK12gmx_cgsort_tE4dataEv(ptr noundef nonnull align 8 dereferenceable(8) %4) #17
  ret ptr %5
}

; Function Attrs: mustprogress nounwind uwtable
define linkonce_odr noundef i64 @_ZNK3gmx12ArrayRefIterIK12gmx_cgsort_tEmiES3_(ptr noundef nonnull align 8 dereferenceable(8) %0, ptr %1) #0 comdat align 2 {
  %3 = alloca %"struct.gmx::ArrayRefIter.818", align 8
  %4 = alloca ptr, align 8
  %5 = getelementptr inbounds nuw %"struct.gmx::ArrayRefIter.818", ptr %3, i32 0, i32 0
  store ptr %1, ptr %5, align 8
  store ptr %0, ptr %4, align 8, !tbaa !1118
  %6 = load ptr, ptr %4, align 8
  %7 = getelementptr inbounds nuw %"struct.gmx::ArrayRefIter.818", ptr %6, i32 0, i32 0
  %8 = load ptr, ptr %7, align 8, !tbaa !1120
  %9 = getelementptr inbounds nuw %"struct.gmx::ArrayRefIter.818", ptr %3, i32 0, i32 0
  %10 = load ptr, ptr %9, align 8, !tbaa !1120
  %11 = ptrtoint ptr %8 to i64
  %12 = ptrtoint ptr %10 to i64
  %13 = sub i64 %11, %12
  %14 = sdiv exact i64 %13, 4
  ret i64 %14
}

; Function Attrs: mustprogress uwtable
define internal void @_ZL11orderVectorIiEvN3gmx8ArrayRefIK12gmx_cgsort_tEENS1_IT_EES5_S6_(ptr %0, ptr %1, ptr %2, ptr %3, i32 noundef %4, ptr noundef byval(%"class.gmx::ArrayRef.479") align 8 %5) #3 {
  %7 = alloca %"class.gmx::ArrayRef.817", align 8
  %8 = alloca %"class.gmx::ArrayRef.479", align 8
  %9 = alloca i32, align 4
  %10 = alloca i32, align 4
  %11 = call i32 @__kmpc_global_thread_num(ptr @2)
  %12 = getelementptr inbounds nuw { ptr, ptr }, ptr %7, i32 0, i32 0
  store ptr %0, ptr %12, align 8
  %13 = getelementptr inbounds nuw { ptr, ptr }, ptr %7, i32 0, i32 1
  store ptr %1, ptr %13, align 8
  %14 = getelementptr inbounds nuw { ptr, ptr }, ptr %8, i32 0, i32 0
  store ptr %2, ptr %14, align 8
  %15 = getelementptr inbounds nuw { ptr, ptr }, ptr %8, i32 0, i32 1
  store ptr %3, ptr %15, align 8
  store i32 %4, ptr %9, align 4, !tbaa !141
  call void @llvm.lifetime.start.p0(i64 4, ptr %10) #17
  %16 = call noundef i32 @_Z20gmx_omp_nthreads_get17ModuleMultiThread(i32 noundef 1)
  store i32 %16, ptr %10, align 4, !tbaa !141
  %17 = load i32, ptr %10, align 4, !tbaa !141
  call void @__kmpc_push_num_threads(ptr @2, i32 %11, i32 %17)
  call void (ptr, i32, ptr, ...) @__kmpc_fork_call(ptr @2, i32 4, ptr @_ZL11orderVectorIiEvN3gmx8ArrayRefIK12gmx_cgsort_tEENS1_IT_EES5_S6_.omp_outlined, ptr %7, ptr %5, ptr %8, ptr %9)
  %18 = load i32, ptr %10, align 4, !tbaa !141
  call void @__kmpc_push_num_threads(ptr @2, i32 %11, i32 %18)
  call void (ptr, i32, ptr, ...) @__kmpc_fork_call(ptr @2, i32 3, ptr @_ZL11orderVectorIiEvN3gmx8ArrayRefIK12gmx_cgsort_tEENS1_IT_EES5_S6_.omp_outlined.142, ptr %7, ptr %8, ptr %5)
  call void @llvm.lifetime.end.p0(i64 4, ptr %10) #17
  ret void
}

; Function Attrs: mustprogress nounwind uwtable
define linkonce_odr void @_ZN3gmx8ArrayRefIiEC2IRSt6vectorIiNS_30DefaultInitializationAllocatorIiSaIiEEEEvEEOT_(ptr noundef nonnull align 8 dereferenceable(16) %0, ptr noundef nonnull align 8 dereferenceable(24) %1) unnamed_addr #0 comdat align 2 {
  %3 = alloca ptr, align 8
  %4 = alloca ptr, align 8
  store ptr %0, ptr %3, align 8, !tbaa !708
  store ptr %1, ptr %4, align 8, !tbaa !685
  %5 = load ptr, ptr %3, align 8
  %6 = getelementptr inbounds nuw %"class.gmx::ArrayRef.479", ptr %5, i32 0, i32 0
  %7 = load ptr, ptr %4, align 8, !tbaa !685
  %8 = call noundef ptr @_ZNSt6vectorIiN3gmx30DefaultInitializationAllocatorIiSaIiEEEE4dataEv(ptr noundef nonnull align 8 dereferenceable(24) %7) #17
  call void @_ZN3gmx12ArrayRefIterIiEC2EPi(ptr noundef nonnull align 8 dereferenceable(8) %6, ptr noundef %8) #17
  %9 = getelementptr inbounds nuw %"class.gmx::ArrayRef.479", ptr %5, i32 0, i32 1
  %10 = load ptr, ptr %4, align 8, !tbaa !685
  %11 = call noundef ptr @_ZNSt6vectorIiN3gmx30DefaultInitializationAllocatorIiSaIiEEEE4dataEv(ptr noundef nonnull align 8 dereferenceable(24) %10) #17
  %12 = load ptr, ptr %4, align 8, !tbaa !685
  %13 = call noundef i64 @_ZNKSt6vectorIiN3gmx30DefaultInitializationAllocatorIiSaIiEEEE4sizeEv(ptr noundef nonnull align 8 dereferenceable(24) %12) #17
  %14 = getelementptr inbounds nuw i32, ptr %11, i64 %13
  call void @_ZN3gmx12ArrayRefIterIiEC2EPi(ptr noundef nonnull align 8 dereferenceable(8) %9, ptr noundef %14) #17
  ret void
}

; Function Attrs: mustprogress nounwind uwtable
define linkonce_odr void @_ZN3gmx8ArrayRefIiEC2IRS1_vEEOT_(ptr noundef nonnull align 8 dereferenceable(16) %0, ptr noundef nonnull align 8 dereferenceable(16) %1) unnamed_addr #0 comdat align 2 {
  %3 = alloca ptr, align 8
  %4 = alloca ptr, align 8
  store ptr %0, ptr %3, align 8, !tbaa !708
  store ptr %1, ptr %4, align 8, !tbaa !708
  %5 = load ptr, ptr %3, align 8
  %6 = getelementptr inbounds nuw %"class.gmx::ArrayRef.479", ptr %5, i32 0, i32 0
  %7 = load ptr, ptr %4, align 8, !tbaa !708
  %8 = call noundef ptr @_ZNK3gmx8ArrayRefIiE4dataEv(ptr noundef nonnull align 8 dereferenceable(16) %7)
  call void @_ZN3gmx12ArrayRefIterIiEC2EPi(ptr noundef nonnull align 8 dereferenceable(8) %6, ptr noundef %8) #17
  %9 = getelementptr inbounds nuw %"class.gmx::ArrayRef.479", ptr %5, i32 0, i32 1
  %10 = load ptr, ptr %4, align 8, !tbaa !708
  %11 = call noundef ptr @_ZNK3gmx8ArrayRefIiE4dataEv(ptr noundef nonnull align 8 dereferenceable(16) %10)
  %12 = load ptr, ptr %4, align 8, !tbaa !708
  %13 = call noundef i64 @_ZNK3gmx8ArrayRefIiE4sizeEv(ptr noundef nonnull align 8 dereferenceable(16) %12)
  %14 = getelementptr inbounds nuw i32, ptr %11, i64 %13
  call void @_ZN3gmx12ArrayRefIterIiEC2EPi(ptr noundef nonnull align 8 dereferenceable(8) %9, ptr noundef %14) #17
  ret void
}

; Function Attrs: mustprogress uwtable
define linkonce_odr void @_ZN3gmx8ArrayRefIK12gmx_cgsort_tEC2IRS3_vEEOT_(ptr noundef nonnull align 8 dereferenceable(16) %0, ptr noundef nonnull align 8 dereferenceable(16) %1) unnamed_addr #3 comdat align 2 {
  %3 = alloca ptr, align 8
  %4 = alloca ptr, align 8
  store ptr %0, ptr %3, align 8, !tbaa !1071
  store ptr %1, ptr %4, align 8, !tbaa !1071
  %5 = load ptr, ptr %3, align 8
  %6 = getelementptr inbounds nuw %"class.gmx::ArrayRef.817", ptr %5, i32 0, i32 0
  %7 = load ptr, ptr %4, align 8, !tbaa !1071
  %8 = call noundef ptr @_ZNK3gmx8ArrayRefIK12gmx_cgsort_tE4dataEv(ptr noundef nonnull align 8 dereferenceable(16) %7)
  call void @_ZN3gmx12ArrayRefIterIK12gmx_cgsort_tEC2EPS2_(ptr noundef nonnull align 8 dereferenceable(8) %6, ptr noundef %8) #17
  %9 = getelementptr inbounds nuw %"class.gmx::ArrayRef.817", ptr %5, i32 0, i32 1
  %10 = load ptr, ptr %4, align 8, !tbaa !1071
  %11 = call noundef ptr @_ZNK3gmx8ArrayRefIK12gmx_cgsort_tE4dataEv(ptr noundef nonnull align 8 dereferenceable(16) %10)
  %12 = load ptr, ptr %4, align 8, !tbaa !1071
  %13 = call noundef i64 @_ZNK3gmx8ArrayRefIK12gmx_cgsort_tE4sizeEv(ptr noundef nonnull align 8 dereferenceable(16) %12)
  %14 = getelementptr inbounds nuw %struct.gmx_cgsort_t, ptr %11, i64 %13
  call void @_ZN3gmx12ArrayRefIterIK12gmx_cgsort_tEC2EPS2_(ptr noundef nonnull align 8 dereferenceable(8) %9, ptr noundef %14) #17
  ret void
}

; Function Attrs: mustprogress nounwind uwtable
define linkonce_odr noundef i64 @_ZNK3gmx8ArrayRefIK12gmx_cgsort_tE4sizeEv(ptr noundef nonnull align 8 dereferenceable(16) %0) #0 comdat align 2 {
  %2 = alloca ptr, align 8
  %3 = alloca %"struct.gmx::ArrayRefIter.818", align 8
  store ptr %0, ptr %2, align 8, !tbaa !1071
  %4 = load ptr, ptr %2, align 8
  %5 = getelementptr inbounds nuw %"class.gmx::ArrayRef.817", ptr %4, i32 0, i32 1
  %6 = getelementptr inbounds nuw %"class.gmx::ArrayRef.817", ptr %4, i32 0, i32 0
  call void @llvm.memcpy.p0.p0.i64(ptr align 8 %3, ptr align 8 %6, i64 8, i1 false)
  %7 = getelementptr inbounds nuw %"struct.gmx::ArrayRefIter.818", ptr %3, i32 0, i32 0
  %8 = load ptr, ptr %7, align 8
  %9 = call noundef i64 @_ZNK3gmx12ArrayRefIterIK12gmx_cgsort_tEmiES3_(ptr noundef nonnull align 8 dereferenceable(8) %5, ptr %8) #17
  ret i64 %9
}

; Function Attrs: mustprogress nounwind uwtable
define linkonce_odr noundef i64 @_ZNK3gmx8ArrayRefIK12gmx_cgsort_tE5ssizeEv(ptr noundef nonnull align 8 dereferenceable(16) %0) #0 comdat align 2 {
  %2 = alloca ptr, align 8
  store ptr %0, ptr %2, align 8, !tbaa !1071
  %3 = load ptr, ptr %2, align 8
  %4 = call noundef i64 @_ZNK3gmx8ArrayRefIK12gmx_cgsort_tE4sizeEv(ptr noundef nonnull align 8 dereferenceable(16) %3)
  ret i64 %4
}

; Function Attrs: mustprogress nounwind uwtable
define linkonce_odr noundef i64 @_ZNKSt6vectorIiN3gmx30DefaultInitializationAllocatorIiSaIiEEEE4sizeEv(ptr noundef nonnull align 8 dereferenceable(24) %0) #0 comdat align 2 {
  %2 = alloca ptr, align 8
  store ptr %0, ptr %2, align 8, !tbaa !685
  %3 = load ptr, ptr %2, align 8
  %4 = getelementptr inbounds nuw %"struct.std::_Vector_base.56", ptr %3, i32 0, i32 0
  %5 = getelementptr inbounds nuw %"struct.std::_Vector_base<int, gmx::DefaultInitializationAllocator<int>>::_Vector_impl_data", ptr %4, i32 0, i32 1
  %6 = load ptr, ptr %5, align 8, !tbaa !914
  %7 = getelementptr inbounds nuw %"struct.std::_Vector_base.56", ptr %3, i32 0, i32 0
  %8 = getelementptr inbounds nuw %"struct.std::_Vector_base<int, gmx::DefaultInitializationAllocator<int>>::_Vector_impl_data", ptr %7, i32 0, i32 0
  %9 = load ptr, ptr %8, align 8, !tbaa !707
  %10 = ptrtoint ptr %6 to i64
  %11 = ptrtoint ptr %9 to i64
  %12 = sub i64 %10, %11
  %13 = sdiv exact i64 %12, 4
  ret i64 %13
}

; Function Attrs: mustprogress uwtable
define internal void @_ZL11orderVectorIiEvN3gmx8ArrayRefIK12gmx_cgsort_tEENS1_IT_EERKS5_PSt6vectorIS5_NS0_30DefaultInitializationAllocatorIS5_SaIS5_EEEE(ptr %0, ptr %1, ptr %2, ptr %3, ptr noundef nonnull align 4 dereferenceable(4) %4, ptr noundef %5) #3 {
  %7 = alloca %"class.gmx::ArrayRef.817", align 8
  %8 = alloca %"class.gmx::ArrayRef.479", align 8
  %9 = alloca ptr, align 8
  %10 = alloca ptr, align 8
  %11 = alloca %"class.gmx::ArrayRef.817", align 8
  %12 = alloca %"class.gmx::ArrayRef.479", align 8
  %13 = alloca %"class.gmx::ArrayRef.479", align 8
  %14 = getelementptr inbounds nuw { ptr, ptr }, ptr %7, i32 0, i32 0
  store ptr %0, ptr %14, align 8
  %15 = getelementptr inbounds nuw { ptr, ptr }, ptr %7, i32 0, i32 1
  store ptr %1, ptr %15, align 8
  %16 = getelementptr inbounds nuw { ptr, ptr }, ptr %8, i32 0, i32 0
  store ptr %2, ptr %16, align 8
  %17 = getelementptr inbounds nuw { ptr, ptr }, ptr %8, i32 0, i32 1
  store ptr %3, ptr %17, align 8
  store ptr %4, ptr %9, align 8, !tbaa !152
  store ptr %5, ptr %10, align 8, !tbaa !685
  %18 = load ptr, ptr %10, align 8, !tbaa !685
  %19 = call noundef i64 @_ZNKSt6vectorIiN3gmx30DefaultInitializationAllocatorIiSaIiEEEE4sizeEv(ptr noundef nonnull align 8 dereferenceable(24) %18) #17
  %20 = call noundef i64 @_ZNK3gmx8ArrayRefIK12gmx_cgsort_tE5ssizeEv(ptr noundef nonnull align 8 dereferenceable(16) %7)
  %21 = icmp slt i64 %19, %20
  br i1 %21, label %22, label %25

22:                                               ; preds = %6
  %23 = load ptr, ptr %10, align 8, !tbaa !685
  %24 = call noundef i64 @_ZNK3gmx8ArrayRefIK12gmx_cgsort_tE4sizeEv(ptr noundef nonnull align 8 dereferenceable(16) %7)
  call void @_ZNSt6vectorIiN3gmx30DefaultInitializationAllocatorIiSaIiEEEE6resizeEm(ptr noundef nonnull align 8 dereferenceable(24) %23, i64 noundef %24)
  br label %25

25:                                               ; preds = %22, %6
  call void @_ZN3gmx8ArrayRefIK12gmx_cgsort_tEC2IRS3_vEEOT_(ptr noundef nonnull align 8 dereferenceable(16) %11, ptr noundef nonnull align 8 dereferenceable(16) %7)
  call void @_ZN3gmx8ArrayRefIiEC2IRS1_vEEOT_(ptr noundef nonnull align 8 dereferenceable(16) %12, ptr noundef nonnull align 8 dereferenceable(16) %8)
  %26 = load ptr, ptr %9, align 8, !tbaa !152
  %27 = load i32, ptr %26, align 4, !tbaa !141
  %28 = load ptr, ptr %10, align 8, !tbaa !685
  call void @_ZN3gmx8ArrayRefIiEC2IRSt6vectorIiNS_30DefaultInitializationAllocatorIiSaIiEEEEvEEOT_(ptr noundef nonnull align 8 dereferenceable(16) %13, ptr noundef nonnull align 8 dereferenceable(24) %28)
  %29 = getelementptr inbounds nuw { ptr, ptr }, ptr %11, i32 0, i32 0
  %30 = load ptr, ptr %29, align 8
  %31 = getelementptr inbounds nuw { ptr, ptr }, ptr %11, i32 0, i32 1
  %32 = load ptr, ptr %31, align 8
  %33 = getelementptr inbounds nuw { ptr, ptr }, ptr %12, i32 0, i32 0
  %34 = load ptr, ptr %33, align 8
  %35 = getelementptr inbounds nuw { ptr, ptr }, ptr %12, i32 0, i32 1
  %36 = load ptr, ptr %35, align 8
  call void @_ZL11orderVectorIiEvN3gmx8ArrayRefIK12gmx_cgsort_tEENS1_IT_EES5_S6_(ptr %30, ptr %32, ptr %34, ptr %36, i32 noundef %27, ptr noundef byval(%"class.gmx::ArrayRef.479") align 8 %13)
  ret void
}