; Function Attrs: mustprogress uwtable
define internal fastcc void @_ZL11orderVectorIiEvN3gmx8ArrayRefIK12gmx_cgsort_tEENS1_IT_EERKS5_PSt6vectorIS5_NS0_30DefaultInitializationAllocatorIS5_SaIS5_EEEE(ptr %0, ptr %1, ptr %2, ptr %3, i32 %.0.val, ptr noundef nonnull %4) unnamed_addr #4 {
  %6 = alloca %"class.gmx::ArrayRef.817", align 8
  %7 = alloca %"class.gmx::ArrayRef.479", align 8
  %8 = alloca i32, align 4
  %9 = alloca %"class.gmx::ArrayRef.479", align 8
  %10 = getelementptr inbounds nuw i8, ptr %4, i64 8
  %11 = load ptr, ptr %10, align 8, !tbaa !466
  %12 = load ptr, ptr %4, align 8, !tbaa !465
  %13 = ptrtoint ptr %11 to i64
  %14 = ptrtoint ptr %12 to i64
  %15 = sub i64 %13, %14
  %16 = ptrtoint ptr %1 to i64
  %17 = ptrtoint ptr %0 to i64
  %18 = sub i64 %16, %17
  %19 = icmp slt i64 %15, %18
  br i1 %19, label %20, label %22

20:                                               ; preds = %5
  %21 = ashr exact i64 %18, 2
  tail call void @_ZNSt6vectorIiN3gmx30DefaultInitializationAllocatorIiSaIiEEEE6resizeEm(ptr noundef nonnull align 8 dereferenceable(24) %4, i64 noundef %21)
  %.pre = load ptr, ptr %4, align 8, !tbaa !465
  %.pre10 = load ptr, ptr %10, align 8, !tbaa !466
  %.pre11 = ptrtoint ptr %.pre10 to i64
  %.pre12 = ptrtoint ptr %.pre to i64
  %.pre14 = sub i64 %.pre11, %.pre12
  br label %22

22:                                               ; preds = %20, %5
  %.pre-phi15 = phi i64 [ %.pre14, %20 ], [ %15, %5 ]
  %23 = phi ptr [ %.pre, %20 ], [ %12, %5 ]
  %24 = getelementptr inbounds nuw i8, ptr %0, i64 %18
  %25 = ptrtoint ptr %3 to i64
  %26 = ptrtoint ptr %2 to i64
  %27 = sub i64 %25, %26
  %28 = getelementptr inbounds nuw i8, ptr %2, i64 %27
  %29 = getelementptr inbounds nuw i8, ptr %23, i64 %.pre-phi15
  call void @llvm.lifetime.start.p0(i64 16, ptr nonnull %9)
  call void @llvm.lifetime.start.p0(i64 16, ptr nonnull %6)
  call void @llvm.lifetime.start.p0(i64 16, ptr nonnull %7)
  call void @llvm.lifetime.start.p0(i64 4, ptr nonnull %8)
  store ptr %23, ptr %9, align 8
  %.sroa.2.0..sroa_idx = getelementptr inbounds nuw i8, ptr %9, i64 8
  store ptr %29, ptr %.sroa.2.0..sroa_idx, align 8
  %30 = tail call i32 @__kmpc_global_thread_num(ptr nonnull @2)
  store ptr %0, ptr %6, align 8
  %31 = getelementptr inbounds nuw i8, ptr %6, i64 8
  store ptr %24, ptr %31, align 8
  store ptr %2, ptr %7, align 8
  %32 = getelementptr inbounds nuw i8, ptr %7, i64 8
  store ptr %28, ptr %32, align 8
  store i32 %.0.val, ptr %8, align 4, !tbaa !208
  %33 = tail call noundef i32 @_Z20gmx_omp_nthreads_get17ModuleMultiThread(i32 noundef 1)
  tail call void @__kmpc_push_num_threads(ptr nonnull @2, i32 %30, i32 %33)
  call void (ptr, i32, ptr, ...) @__kmpc_fork_call(ptr nonnull @2, i32 4, ptr nonnull @_ZL11orderVectorIiEvN3gmx8ArrayRefIK12gmx_cgsort_tEENS1_IT_EES5_S6_.omp_outlined, ptr nonnull %6, ptr nonnull align 8 %9, ptr nonnull %7, ptr nonnull %8)
  call void @__kmpc_push_num_threads(ptr nonnull @2, i32 %30, i32 %33)
  call void (ptr, i32, ptr, ...) @__kmpc_fork_call(ptr nonnull @2, i32 3, ptr nonnull @_ZL11orderVectorIiEvN3gmx8ArrayRefIK12gmx_cgsort_tEENS1_IT_EES5_S6_.omp_outlined.142, ptr nonnull %6, ptr nonnull %7, ptr nonnull align 8 %9)
  call void @llvm.lifetime.end.p0(i64 16, ptr nonnull %9)
  call void @llvm.lifetime.end.p0(i64 16, ptr nonnull %6)
  call void @llvm.lifetime.end.p0(i64 16, ptr nonnull %7)
  call void @llvm.lifetime.end.p0(i64 4, ptr nonnull %8)
  ret void
}